target datalayout = "e-m:e-p270:32:32-p271:32:32-p272:64:64-i64:64-i128:128-f80:128-n8:16:32:64-S128"
target triple = "x86_64-pc-linux-gnu"

%struct.Curl_addrinfo = type { i32, i32, i32, i32, i32, ptr, ptr, ptr }
%struct.sockaddr_in = type { i16, i16, %struct.in_addr, [8 x i8] }
%struct.in_addr = type { i32 }
%struct.sockaddr_in6 = type { i16, i16, i32, %struct.in6_addr, i32 }
%struct.in6_addr = type { %union.anon }
%union.anon = type { [4 x i32] }

; Function Attrs: nounwind uwtable
define dso_local void @Curl_printable_address(ptr noundef %0, ptr noundef %1, i64 noundef %2) #0 {
  %4 = alloca ptr, align 8
  %5 = alloca ptr, align 8
  %6 = alloca i64, align 8
  %7 = alloca ptr, align 8
  %8 = alloca ptr, align 8
  %9 = alloca ptr, align 8
  %10 = alloca ptr, align 8
  store ptr %0, ptr %4, align 8
  store ptr %1, ptr %5, align 8
  store i64 %2, ptr %6, align 8
  br label %11

11:                                               ; preds = %3
  br label %12

12:                                               ; preds = %11
  %13 = load ptr, ptr %5, align 8
  %14 = getelementptr inbounds i8, ptr %13, i64 0
  store i8 0, ptr %14, align 1
  %15 = load ptr, ptr %4, align 8
  %16 = getelementptr inbounds %struct.Curl_addrinfo, ptr %15, i32 0, i32 1
  %17 = load i32, ptr %16, align 4
  switch i32 %17, label %46 [
    i32 2, label %18
    i32 10, label %32
  ]

18:                                               ; preds = %12
  %19 = load ptr, ptr %4, align 8
  %20 = getelementptr inbounds %struct.Curl_addrinfo, ptr %19, i32 0, i32 6
  %21 = load ptr, ptr %20, align 8
  store ptr %21, ptr %7, align 8
  %22 = load ptr, ptr %7, align 8
  %23 = getelementptr inbounds %struct.sockaddr_in, ptr %22, i32 0, i32 2
  store ptr %23, ptr %8, align 8
  %24 = load ptr, ptr %4, align 8
  %25 = getelementptr inbounds %struct.Curl_addrinfo, ptr %24, i32 0, i32 1
  %26 = load i32, ptr %25, align 4
  %27 = load ptr, ptr %8, align 8
  %28 = load ptr, ptr %5, align 8
  %29 = load i64, ptr %6, align 8
  %30 = trunc i64 %29 to i32
  %31 = call ptr @inet_ntop(i32 noundef %26, ptr noundef %27, ptr noundef %28, i32 noundef %30) #7
  br label %47

32:                                               ; preds = %12
  %33 = load ptr, ptr %4, align 8
  %34 = getelementptr inbounds %struct.Curl_addrinfo, ptr %33, i32 0, i32 6
  %35 = load ptr, ptr %34, align 8
  store ptr %35, ptr %9, align 8
  %36 = load ptr, ptr %9, align 8
  %37 = getelementptr inbounds %struct.sockaddr_in6, ptr %36, i32 0, i32 3
  store ptr %37, ptr %10, align 8
  %38 = load ptr, ptr %4, align 8
  %39 = getelementptr inbounds %struct.Curl_addrinfo, ptr %38, i32 0, i32 1
  %40 = load i32, ptr %39, align 4
  %41 = load ptr, ptr %10, align 8
  %42 = load ptr, ptr %5, align 8
  %43 = load i64, ptr %6, align 8
  %44 = trunc i64 %43 to i32
  %45 = call ptr @inet_ntop(i32 noundef %40, ptr noundef %41, ptr noundef %42, i32 noundef %44) #7
  br label %47

46:                                               ; preds = %12
  br label %47

47:                                               ; preds = %46, %32, %18
  ret void
}