; Function Attrs: nounwind uwtable
define dso_local void @Curl_printable_address(ptr noundef readonly captures(none) %0, ptr noundef initializes((0, 1)) %1, i64 noundef %2) local_unnamed_addr #0 {
  store i8 0, ptr %1, align 1
  %4 = getelementptr inbounds nuw i8, ptr %0, i64 4
  %5 = load i32, ptr %4, align 4
  switch i32 %5, label %12 [
    i32 2, label %.sink.split
    i32 10, label %6
  ]

6:                                                ; preds = %3
  br label %.sink.split

.sink.split:                                      ; preds = %3, %6
  %.sink16 = phi i64 [ 8, %6 ], [ 4, %3 ]
  %7 = getelementptr inbounds nuw i8, ptr %0, i64 32
  %8 = load ptr, ptr %7, align 8
  %9 = getelementptr inbounds nuw i8, ptr %8, i64 %.sink16
  %10 = trunc i64 %2 to i32
  %11 = tail call ptr @inet_ntop(i32 noundef %5, ptr noundef nonnull %9, ptr noundef nonnull %1, i32 noundef %10) #12
  br label %12

12:                                               ; preds = %.sink.split, %3
  ret void
}